; Function Attrs: nounwind uwtable
define hidden void @_ZTv0_n24_N2cv11xfeatures2d10DAISY_ImplD0Ev(ptr noundef %0) unnamed_addr #12 align 2 {
  %2 = load ptr, ptr %0, align 8, !tbaa !122
  %3 = getelementptr inbounds i8, ptr %2, i64 -24
  %4 = load i64, ptr %3, align 8
  %5 = getelementptr inbounds i8, ptr %0, i64 %4
  tail call void @_ZN2cv11xfeatures2d10DAISY_ImplD2Ev(ptr noundef nonnull align 8 dereferenceable(3640) %5, ptr noundef nonnull @_ZTTN2cv11xfeatures2d10DAISY_ImplE) #28
  tail call void @_ZN2cv9AlgorithmD2Ev(ptr noundef nonnull align 8 dereferenceable(3640) %5) #28
  tail call void @_ZdlPv(ptr noundef nonnull align 8 dereferenceable(3640) %5) #29
  ret void
}